target datalayout = "e-m:e-p270:32:32-p271:32:32-p272:64:64-i64:64-i128:128-f80:128-n8:16:32:64-S128"
target triple = "x86_64-pc-linux-gnu"

%struct.lua_TValue = type { %union.Value, i32 }
%union.Value = type { ptr }
%struct.lua_State = type { ptr, i8, i8, i8, ptr, ptr, ptr, ptr, ptr, ptr, ptr, ptr, ptr, i32, i32, i16, i16, i8, i8, i32, i32, ptr, %struct.lua_TValue, %struct.lua_TValue, ptr, ptr, ptr, i64 }

; Function Attrs: nounwind uwtable
define internal void @callTMres(ptr noundef %0, ptr noundef %1, ptr noundef %2, ptr noundef %3, ptr noundef %4) #0 {
  %6 = alloca ptr, align 8
  %7 = alloca ptr, align 8
  %8 = alloca ptr, align 8
  %9 = alloca ptr, align 8
  %10 = alloca ptr, align 8
  %11 = alloca i64, align 8
  %12 = alloca ptr, align 8
  %13 = alloca ptr, align 8
  %14 = alloca ptr, align 8
  %15 = alloca ptr, align 8
  %16 = alloca ptr, align 8
  %17 = alloca ptr, align 8
  %18 = alloca ptr, align 8
  %19 = alloca ptr, align 8
  store ptr %0, ptr %6, align 8, !tbaa !15
  store ptr %1, ptr %7, align 8, !tbaa !4
  store ptr %2, ptr %8, align 8, !tbaa !4
  store ptr %3, ptr %9, align 8, !tbaa !4
  store ptr %4, ptr %10, align 8, !tbaa !4
  call void @llvm.lifetime.start.p0(i64 8, ptr %11) #7
  %20 = load ptr, ptr %7, align 8, !tbaa !4
  %21 = load ptr, ptr %6, align 8, !tbaa !15
  %22 = getelementptr inbounds nuw %struct.lua_State, ptr %21, i32 0, i32 10
  %23 = load ptr, ptr %22, align 8, !tbaa !38
  %24 = ptrtoint ptr %20 to i64
  %25 = ptrtoint ptr %23 to i64
  %26 = sub i64 %24, %25
  store i64 %26, ptr %11, align 8, !tbaa !39
  call void @llvm.lifetime.start.p0(i64 8, ptr %12) #7
  %27 = load ptr, ptr %8, align 8, !tbaa !4
  store ptr %27, ptr %12, align 8, !tbaa !4
  call void @llvm.lifetime.start.p0(i64 8, ptr %13) #7
  %28 = load ptr, ptr %6, align 8, !tbaa !15
  %29 = getelementptr inbounds nuw %struct.lua_State, ptr %28, i32 0, i32 4
  %30 = load ptr, ptr %29, align 8, !tbaa !40
  store ptr %30, ptr %13, align 8, !tbaa !4
  %31 = load ptr, ptr %13, align 8, !tbaa !4
  %32 = getelementptr inbounds nuw %struct.lua_TValue, ptr %31, i32 0, i32 0
  %33 = load ptr, ptr %12, align 8, !tbaa !4
  %34 = getelementptr inbounds nuw %struct.lua_TValue, ptr %33, i32 0, i32 0
  call void @llvm.memcpy.p0.p0.i64(ptr align 8 %32, ptr align 8 %34, i64 8, i1 false), !tbaa.struct !35
  %35 = load ptr, ptr %12, align 8, !tbaa !4
  %36 = getelementptr inbounds nuw %struct.lua_TValue, ptr %35, i32 0, i32 1
  %37 = load i32, ptr %36, align 8, !tbaa !9
  %38 = load ptr, ptr %13, align 8, !tbaa !4
  %39 = getelementptr inbounds nuw %struct.lua_TValue, ptr %38, i32 0, i32 1
  store i32 %37, ptr %39, align 8, !tbaa !9
  call void @llvm.lifetime.end.p0(i64 8, ptr %13) #7
  call void @llvm.lifetime.end.p0(i64 8, ptr %12) #7
  call void @llvm.lifetime.start.p0(i64 8, ptr %14) #7
  %40 = load ptr, ptr %9, align 8, !tbaa !4
  store ptr %40, ptr %14, align 8, !tbaa !4
  call void @llvm.lifetime.start.p0(i64 8, ptr %15) #7
  %41 = load ptr, ptr %6, align 8, !tbaa !15
  %42 = getelementptr inbounds nuw %struct.lua_State, ptr %41, i32 0, i32 4
  %43 = load ptr, ptr %42, align 8, !tbaa !40
  %44 = getelementptr inbounds %struct.lua_TValue, ptr %43, i64 1
  store ptr %44, ptr %15, align 8, !tbaa !4
  %45 = load ptr, ptr %15, align 8, !tbaa !4
  %46 = getelementptr inbounds nuw %struct.lua_TValue, ptr %45, i32 0, i32 0
  %47 = load ptr, ptr %14, align 8, !tbaa !4
  %48 = getelementptr inbounds nuw %struct.lua_TValue, ptr %47, i32 0, i32 0
  call void @llvm.memcpy.p0.p0.i64(ptr align 8 %46, ptr align 8 %48, i64 8, i1 false), !tbaa.struct !35
  %49 = load ptr, ptr %14, align 8, !tbaa !4
  %50 = getelementptr inbounds nuw %struct.lua_TValue, ptr %49, i32 0, i32 1
  %51 = load i32, ptr %50, align 8, !tbaa !9
  %52 = load ptr, ptr %15, align 8, !tbaa !4
  %53 = getelementptr inbounds nuw %struct.lua_TValue, ptr %52, i32 0, i32 1
  store i32 %51, ptr %53, align 8, !tbaa !9
  call void @llvm.lifetime.end.p0(i64 8, ptr %15) #7
  call void @llvm.lifetime.end.p0(i64 8, ptr %14) #7
  call void @llvm.lifetime.start.p0(i64 8, ptr %16) #7
  %54 = load ptr, ptr %10, align 8, !tbaa !4
  store ptr %54, ptr %16, align 8, !tbaa !4
  call void @llvm.lifetime.start.p0(i64 8, ptr %17) #7
  %55 = load ptr, ptr %6, align 8, !tbaa !15
  %56 = getelementptr inbounds nuw %struct.lua_State, ptr %55, i32 0, i32 4
  %57 = load ptr, ptr %56, align 8, !tbaa !40
  %58 = getelementptr inbounds %struct.lua_TValue, ptr %57, i64 2
  store ptr %58, ptr %17, align 8, !tbaa !4
  %59 = load ptr, ptr %17, align 8, !tbaa !4
  %60 = getelementptr inbounds nuw %struct.lua_TValue, ptr %59, i32 0, i32 0
  %61 = load ptr, ptr %16, align 8, !tbaa !4
  %62 = getelementptr inbounds nuw %struct.lua_TValue, ptr %61, i32 0, i32 0
  call void @llvm.memcpy.p0.p0.i64(ptr align 8 %60, ptr align 8 %62, i64 8, i1 false), !tbaa.struct !35
  %63 = load ptr, ptr %16, align 8, !tbaa !4
  %64 = getelementptr inbounds nuw %struct.lua_TValue, ptr %63, i32 0, i32 1
  %65 = load i32, ptr %64, align 8, !tbaa !9
  %66 = load ptr, ptr %17, align 8, !tbaa !4
  %67 = getelementptr inbounds nuw %struct.lua_TValue, ptr %66, i32 0, i32 1
  store i32 %65, ptr %67, align 8, !tbaa !9
  call void @llvm.lifetime.end.p0(i64 8, ptr %17) #7
  call void @llvm.lifetime.end.p0(i64 8, ptr %16) #7
  %68 = load ptr, ptr %6, align 8, !tbaa !15
  %69 = getelementptr inbounds nuw %struct.lua_State, ptr %68, i32 0, i32 9
  %70 = load ptr, ptr %69, align 8, !tbaa !41
  %71 = load ptr, ptr %6, align 8, !tbaa !15
  %72 = getelementptr inbounds nuw %struct.lua_State, ptr %71, i32 0, i32 4
  %73 = load ptr, ptr %72, align 8, !tbaa !40
  %74 = ptrtoint ptr %70 to i64
  %75 = ptrtoint ptr %73 to i64
  %76 = sub i64 %74, %75
  %77 = icmp sle i64 %76, 48
  br i1 %77, label %78, label %80

78:                                               ; preds = %5
  %79 = load ptr, ptr %6, align 8, !tbaa !15
  call void @luaD_growstack(ptr noundef %79, i32 noundef 3)
  br label %81

80:                                               ; preds = %5
  br label %81

81:                                               ; preds = %80, %78
  %82 = load ptr, ptr %6, align 8, !tbaa !15
  %83 = getelementptr inbounds nuw %struct.lua_State, ptr %82, i32 0, i32 4
  %84 = load ptr, ptr %83, align 8, !tbaa !40
  %85 = getelementptr inbounds %struct.lua_TValue, ptr %84, i64 3
  store ptr %85, ptr %83, align 8, !tbaa !40
  %86 = load ptr, ptr %6, align 8, !tbaa !15
  %87 = load ptr, ptr %6, align 8, !tbaa !15
  %88 = getelementptr inbounds nuw %struct.lua_State, ptr %87, i32 0, i32 4
  %89 = load ptr, ptr %88, align 8, !tbaa !40
  %90 = getelementptr inbounds %struct.lua_TValue, ptr %89, i64 -3
  call void @luaD_call(ptr noundef %86, ptr noundef %90, i32 noundef 1)
  %91 = load ptr, ptr %6, align 8, !tbaa !15
  %92 = getelementptr inbounds nuw %struct.lua_State, ptr %91, i32 0, i32 10
  %93 = load ptr, ptr %92, align 8, !tbaa !38
  %94 = load i64, ptr %11, align 8, !tbaa !39
  %95 = getelementptr inbounds i8, ptr %93, i64 %94
  store ptr %95, ptr %7, align 8, !tbaa !4
  %96 = load ptr, ptr %6, align 8, !tbaa !15
  %97 = getelementptr inbounds nuw %struct.lua_State, ptr %96, i32 0, i32 4
  %98 = load ptr, ptr %97, align 8, !tbaa !40
  %99 = getelementptr inbounds %struct.lua_TValue, ptr %98, i32 -1
  store ptr %99, ptr %97, align 8, !tbaa !40
  call void @llvm.lifetime.start.p0(i64 8, ptr %18) #7
  %100 = load ptr, ptr %6, align 8, !tbaa !15
  %101 = getelementptr inbounds nuw %struct.lua_State, ptr %100, i32 0, i32 4
  %102 = load ptr, ptr %101, align 8, !tbaa !40
  store ptr %102, ptr %18, align 8, !tbaa !4
  call void @llvm.lifetime.start.p0(i64 8, ptr %19) #7
  %103 = load ptr, ptr %7, align 8, !tbaa !4
  store ptr %103, ptr %19, align 8, !tbaa !4
  %104 = load ptr, ptr %19, align 8, !tbaa !4
  %105 = getelementptr inbounds nuw %struct.lua_TValue, ptr %104, i32 0, i32 0
  %106 = load ptr, ptr %18, align 8, !tbaa !4
  %107 = getelementptr inbounds nuw %struct.lua_TValue, ptr %106, i32 0, i32 0
  call void @llvm.memcpy.p0.p0.i64(ptr align 8 %105, ptr align 8 %107, i64 8, i1 false), !tbaa.struct !35
  %108 = load ptr, ptr %18, align 8, !tbaa !4
  %109 = getelementptr inbounds nuw %struct.lua_TValue, ptr %108, i32 0, i32 1
  %110 = load i32, ptr %109, align 8, !tbaa !9
  %111 = load ptr, ptr %19, align 8, !tbaa !4
  %112 = getelementptr inbounds nuw %struct.lua_TValue, ptr %111, i32 0, i32 1
  store i32 %110, ptr %112, align 8, !tbaa !9
  call void @llvm.lifetime.end.p0(i64 8, ptr %19) #7
  call void @llvm.lifetime.end.p0(i64 8, ptr %18) #7
  call void @llvm.lifetime.end.p0(i64 8, ptr %11) #7
  ret void
}

; Function Attrs: nounwind uwtable
define internal i32 @call_binTM(ptr noundef %0, ptr noundef %1, ptr noundef %2, ptr noundef %3, i32 noundef %4) #0 {
  %6 = alloca i32, align 4
  %7 = alloca ptr, align 8
  %8 = alloca ptr, align 8
  %9 = alloca ptr, align 8
  %10 = alloca ptr, align 8
  %11 = alloca i32, align 4
  %12 = alloca ptr, align 8
  %13 = alloca i32, align 4
  store ptr %0, ptr %7, align 8, !tbaa !15
  store ptr %1, ptr %8, align 8, !tbaa !4
  store ptr %2, ptr %9, align 8, !tbaa !4
  store ptr %3, ptr %10, align 8, !tbaa !4
  store i32 %4, ptr %11, align 4, !tbaa !17
  call void @llvm.lifetime.start.p0(i64 8, ptr %12) #7
  %14 = load ptr, ptr %7, align 8, !tbaa !15
  %15 = load ptr, ptr %8, align 8, !tbaa !4
  %16 = load i32, ptr %11, align 4, !tbaa !17
  %17 = call ptr @luaT_gettmbyobj(ptr noundef %14, ptr noundef %15, i32 noundef %16)
  store ptr %17, ptr %12, align 8, !tbaa !4
  %18 = load ptr, ptr %12, align 8, !tbaa !4
  %19 = getelementptr inbounds nuw %struct.lua_TValue, ptr %18, i32 0, i32 1
  %20 = load i32, ptr %19, align 8, !tbaa !9
  %21 = icmp eq i32 %20, 0
  br i1 %21, label %22, label %27

22:                                               ; preds = %5
  %23 = load ptr, ptr %7, align 8, !tbaa !15
  %24 = load ptr, ptr %9, align 8, !tbaa !4
  %25 = load i32, ptr %11, align 4, !tbaa !17
  %26 = call ptr @luaT_gettmbyobj(ptr noundef %23, ptr noundef %24, i32 noundef %25)
  store ptr %26, ptr %12, align 8, !tbaa !4
  br label %27

27:                                               ; preds = %22, %5
  %28 = load ptr, ptr %12, align 8, !tbaa !4
  %29 = getelementptr inbounds nuw %struct.lua_TValue, ptr %28, i32 0, i32 1
  %30 = load i32, ptr %29, align 8, !tbaa !9
  %31 = icmp eq i32 %30, 0
  br i1 %31, label %32, label %33

32:                                               ; preds = %27
  store i32 0, ptr %6, align 4
  store i32 1, ptr %13, align 4
  br label %39

33:                                               ; preds = %27
  %34 = load ptr, ptr %7, align 8, !tbaa !15
  %35 = load ptr, ptr %10, align 8, !tbaa !4
  %36 = load ptr, ptr %12, align 8, !tbaa !4
  %37 = load ptr, ptr %8, align 8, !tbaa !4
  %38 = load ptr, ptr %9, align 8, !tbaa !4
  call void @callTMres(ptr noundef %34, ptr noundef %35, ptr noundef %36, ptr noundef %37, ptr noundef %38)
  store i32 1, ptr %6, align 4
  store i32 1, ptr %13, align 4
  br label %39

39:                                               ; preds = %33, %32
  call void @llvm.lifetime.end.p0(i64 8, ptr %12) #7
  %40 = load i32, ptr %6, align 4
  ret i32 %40
}