; Function Attrs: nounwind uwtable
define internal fastcc range(i32 0, 2) i32 @call_binTM(ptr noundef %0, ptr noundef %1, ptr noundef %2, ptr noundef %3, i32 noundef range(i32 5, 16) %4) unnamed_addr #0 {
  %6 = tail call ptr @luaT_gettmbyobj(ptr noundef %0, ptr noundef %1, i32 noundef %4) #9
  %7 = getelementptr inbounds nuw i8, ptr %6, i64 8
  %8 = load i32, ptr %7, align 8, !tbaa !4
  %9 = icmp eq i32 %8, 0
  br i1 %9, label %10, label %.thread

10:                                               ; preds = %5
  %11 = tail call ptr @luaT_gettmbyobj(ptr noundef %0, ptr noundef %2, i32 noundef %4) #9
  %.phi.trans.insert = getelementptr inbounds nuw i8, ptr %11, i64 8
  %.pre = load i32, ptr %.phi.trans.insert, align 8, !tbaa !4
  %12 = icmp eq i32 %.pre, 0
  br i1 %12, label %54, label %.thread

.thread:                                          ; preds = %5, %10
  %.015 = phi ptr [ %11, %10 ], [ %6, %5 ]
  %13 = getelementptr inbounds nuw i8, ptr %.015, i64 8
  %14 = getelementptr inbounds nuw i8, ptr %0, i64 64
  %15 = load ptr, ptr %14, align 8, !tbaa !32
  %16 = getelementptr inbounds nuw i8, ptr %0, i64 16
  %17 = load ptr, ptr %16, align 8, !tbaa !33
  %18 = load i64, ptr %.015, align 8, !tbaa !9
  store i64 %18, ptr %17, align 8, !tbaa !9
  %19 = load i32, ptr %13, align 8, !tbaa !4
  %20 = getelementptr inbounds nuw i8, ptr %17, i64 8
  store i32 %19, ptr %20, align 8, !tbaa !4
  %21 = load ptr, ptr %16, align 8, !tbaa !33
  %22 = getelementptr inbounds nuw i8, ptr %21, i64 16
  %23 = load i64, ptr %1, align 8, !tbaa !9
  store i64 %23, ptr %22, align 8, !tbaa !9
  %24 = getelementptr inbounds nuw i8, ptr %1, i64 8
  %25 = load i32, ptr %24, align 8, !tbaa !4
  %26 = getelementptr inbounds nuw i8, ptr %21, i64 24
  store i32 %25, ptr %26, align 8, !tbaa !4
  %27 = load ptr, ptr %16, align 8, !tbaa !33
  %28 = getelementptr inbounds nuw i8, ptr %27, i64 32
  %29 = load i64, ptr %2, align 8, !tbaa !9
  store i64 %29, ptr %28, align 8, !tbaa !9
  %30 = getelementptr inbounds nuw i8, ptr %2, i64 8
  %31 = load i32, ptr %30, align 8, !tbaa !4
  %32 = getelementptr inbounds nuw i8, ptr %27, i64 40
  store i32 %31, ptr %32, align 8, !tbaa !4
  %33 = getelementptr inbounds nuw i8, ptr %0, i64 56
  %34 = load ptr, ptr %33, align 8, !tbaa !34
  %35 = load ptr, ptr %16, align 8, !tbaa !33
  %36 = ptrtoint ptr %34 to i64
  %37 = ptrtoint ptr %35 to i64
  %38 = sub i64 %36, %37
  %39 = icmp slt i64 %38, 49
  br i1 %39, label %40, label %callTMres.exit

40:                                               ; preds = %.thread
  tail call void @luaD_growstack(ptr noundef nonnull %0, i32 noundef 3) #9
  %.pre.i = load ptr, ptr %16, align 8, !tbaa !33
  br label %callTMres.exit

callTMres.exit:                                   ; preds = %.thread, %40
  %41 = phi ptr [ %35, %.thread ], [ %.pre.i, %40 ]
  %42 = ptrtoint ptr %3 to i64
  %43 = ptrtoint ptr %15 to i64
  %44 = sub i64 %42, %43
  %45 = getelementptr inbounds nuw i8, ptr %41, i64 48
  store ptr %45, ptr %16, align 8, !tbaa !33
  tail call void @luaD_call(ptr noundef nonnull %0, ptr noundef %41, i32 noundef 1) #9
  %46 = load ptr, ptr %14, align 8, !tbaa !32
  %47 = getelementptr inbounds i8, ptr %46, i64 %44
  %48 = load ptr, ptr %16, align 8, !tbaa !33
  %49 = getelementptr inbounds i8, ptr %48, i64 -16
  store ptr %49, ptr %16, align 8, !tbaa !33
  %50 = load i64, ptr %49, align 8, !tbaa !9
  store i64 %50, ptr %47, align 8, !tbaa !9
  %51 = getelementptr inbounds i8, ptr %48, i64 -8
  %52 = load i32, ptr %51, align 8, !tbaa !4
  %53 = getelementptr inbounds nuw i8, ptr %47, i64 8
  store i32 %52, ptr %53, align 8, !tbaa !4
  br label %54

54:                                               ; preds = %10, %callTMres.exit
  %.013 = phi i32 [ 1, %callTMres.exit ], [ 0, %10 ]
  ret i32 %.013
}